; Function Attrs: mustprogress nounwind uwtable
define hidden void @_ZN13LIR_Assembler13emit_lir_listEP8LIR_List(ptr noundef nonnull align 8 dereferenceable(96) %0, ptr noundef %1) local_unnamed_addr #0 align 2 {
  tail call void @_ZN13LIR_Assembler8peepholeEP8LIR_List(ptr noundef nonnull align 8 dereferenceable(96) %0, ptr noundef %1) #11
  %3 = load i32, ptr %1, align 4
  %4 = icmp sgt i32 %3, 0
  br i1 %4, label %.lr.ph, label %_ZN13LIR_Assembler15check_codespaceEv.exit._crit_edge

.lr.ph:                                           ; preds = %2
  %5 = getelementptr inbounds i8, ptr %1, i64 8
  %6 = getelementptr inbounds i8, ptr %0, i64 16
  %wide.trip.count = zext nneg i32 %3 to i64
  br label %7

7:                                                ; preds = %.lr.ph, %38
  %indvars.iv = phi i64 [ 0, %.lr.ph ], [ %indvars.iv.next, %38 ]
  %8 = load ptr, ptr %5, align 8
  %9 = getelementptr inbounds ptr, ptr %8, i64 %indvars.iv
  %10 = load ptr, ptr %9, align 8
  %11 = load ptr, ptr %0, align 8
  %12 = getelementptr inbounds i8, ptr %11, i64 8
  %13 = load ptr, ptr %12, align 8
  %14 = getelementptr inbounds i8, ptr %13, i64 24
  %15 = load ptr, ptr %14, align 8
  %16 = getelementptr inbounds i8, ptr %13, i64 16
  %17 = load ptr, ptr %16, align 8
  %18 = ptrtoint ptr %15 to i64
  %19 = ptrtoint ptr %17 to i64
  %20 = sub i64 %18, %19
  %21 = trunc i64 %20 to i32
  %22 = icmp slt i32 %21, 2048
  br i1 %22, label %23, label %_ZN13LIR_Assembler15check_codespaceEv.exit

23:                                               ; preds = %7
  %24 = load ptr, ptr %6, align 8
  tail call void @_ZN11Compilation7bailoutEPKc(ptr noundef nonnull align 8 dereferenceable(704) %24, ptr noundef nonnull @.str) #11
  br label %_ZN13LIR_Assembler15check_codespaceEv.exit

_ZN13LIR_Assembler15check_codespaceEv.exit:       ; preds = %7, %23
  %25 = load ptr, ptr %6, align 8
  %26 = getelementptr inbounds i8, ptr %25, i64 112
  %27 = load ptr, ptr %26, align 8
  %.not = icmp eq ptr %27, null
  br i1 %.not, label %28, label %_ZN13LIR_Assembler15check_codespaceEv.exit._crit_edge

28:                                               ; preds = %_ZN13LIR_Assembler15check_codespaceEv.exit
  %29 = load ptr, ptr %10, align 8
  %30 = getelementptr inbounds i8, ptr %29, i64 16
  %31 = load ptr, ptr %30, align 8
  tail call void %31(ptr noundef nonnull align 8 dereferenceable(48) %10, ptr noundef nonnull %0) #11
  %32 = load ptr, ptr %6, align 8
  %33 = tail call noundef ptr @_ZNK11Compilation19debug_info_recorderEv(ptr noundef nonnull align 8 dereferenceable(704) %32) #11
  %34 = getelementptr inbounds i8, ptr %33, i64 8
  %35 = load i8, ptr %34, align 8
  %36 = trunc i8 %35 to i1
  br i1 %36, label %37, label %38

37:                                               ; preds = %28
  tail call void @_ZN13LIR_Assembler18process_debug_infoEP6LIR_Op(ptr noundef nonnull align 8 dereferenceable(96) %0, ptr noundef nonnull %10)
  br label %38

38:                                               ; preds = %28, %37
  %indvars.iv.next = add nuw nsw i64 %indvars.iv, 1
  %exitcond.not = icmp eq i64 %indvars.iv.next, %wide.trip.count
  br i1 %exitcond.not, label %_ZN13LIR_Assembler15check_codespaceEv.exit._crit_edge, label %7, !llvm.loop !10

_ZN13LIR_Assembler15check_codespaceEv.exit._crit_edge: ; preds = %38, %_ZN13LIR_Assembler15check_codespaceEv.exit, %2
  ret void
}